; ModuleID = '32/1882.c'
source_filename = "32/1882.c"
target datalayout = "e-m:e-p270:32:32-p271:32:32-p272:64:64-i64:64-f80:128-n8:16:32:64-S128"
target triple = "x86_64-pc-linux-gnu"

@.str = private unnamed_addr constant [3 x i8] c"%d\00", align 1
@.str.1 = private unnamed_addr constant [3 x i8] c"%s\00", align 1
@.str.2 = private unnamed_addr constant [2 x i8] c"\0A\00", align 1

; Function Attrs: noinline nounwind uwtable
define dso_local i32 @main() #0 {
  %1 = alloca i32, align 4
  %2 = alloca i32, align 4
  %3 = alloca i32, align 4
  %4 = alloca i32, align 4
  %5 = alloca i32, align 4
  %6 = alloca i32, align 4
  %7 = alloca [100 x i8], align 16
  %8 = alloca [100 x i8], align 16
  store i32 0, i32* %1, align 4
  %9 = call i32 (i8*, ...) @__isoc99_scanf(i8* getelementptr inbounds ([3 x i8], [3 x i8]* @.str, i64 0, i64 0), i32* %2)
  store i32 0, i32* %5, align 4
  br label %10

10:                                               ; preds = %216, %0
  %11 = load i32, i32* %5, align 4
  %12 = load i32, i32* %2, align 4
  %13 = icmp slt i32 %11, %12
  br i1 %13, label %14, label %219

14:                                               ; preds = %10
  %15 = getelementptr inbounds [100 x i8], [100 x i8]* %7, i64 0, i64 0
  %16 = call i32 (i8*, ...) @__isoc99_scanf(i8* getelementptr inbounds ([3 x i8], [3 x i8]* @.str.1, i64 0, i64 0), i8* %15)
  %17 = getelementptr inbounds [100 x i8], [100 x i8]* %8, i64 0, i64 0
  %18 = call i32 (i8*, ...) @__isoc99_scanf(i8* getelementptr inbounds ([3 x i8], [3 x i8]* @.str.1, i64 0, i64 0), i8* %17)
  %19 = getelementptr inbounds [100 x i8], [100 x i8]* %8, i64 0, i64 0
  %20 = call i64 @strlen(i8* %19) #3
  %21 = trunc i64 %20 to i32
  store i32 %21, i32* %4, align 4
  %22 = getelementptr inbounds [100 x i8], [100 x i8]* %7, i64 0, i64 0
  %23 = call i64 @strlen(i8* %22) #3
  %24 = trunc i64 %23 to i32
  store i32 %24, i32* %3, align 4
  %25 = load i32, i32* %4, align 4
  %26 = sub nsw i32 %25, 1
  store i32 %26, i32* %6, align 4
  br label %27

27:                                               ; preds = %116, %14
  %28 = load i32, i32* %6, align 4
  %29 = icmp sgt i32 %28, 0
  br i1 %29, label %30, label %119

30:                                               ; preds = %27
  %31 = load i32, i32* %3, align 4
  %32 = load i32, i32* %4, align 4
  %33 = sub nsw i32 %31, %32
  %34 = load i32, i32* %6, align 4
  %35 = add nsw i32 %33, %34
  %36 = sext i32 %35 to i64
  %37 = getelementptr inbounds [100 x i8], [100 x i8]* %7, i64 0, i64 %36
  %38 = load i8, i8* %37, align 1
  %39 = sext i8 %38 to i32
  %40 = load i32, i32* %6, align 4
  %41 = sext i32 %40 to i64
  %42 = getelementptr inbounds [100 x i8], [100 x i8]* %8, i64 0, i64 %41
  %43 = load i8, i8* %42, align 1
  %44 = sext i8 %43 to i32
  %45 = icmp sge i32 %39, %44
  br i1 %45, label %46, label %70

46:                                               ; preds = %30
  %47 = load i32, i32* %3, align 4
  %48 = load i32, i32* %4, align 4
  %49 = sub nsw i32 %47, %48
  %50 = load i32, i32* %6, align 4
  %51 = add nsw i32 %49, %50
  %52 = sext i32 %51 to i64
  %53 = getelementptr inbounds [100 x i8], [100 x i8]* %7, i64 0, i64 %52
  %54 = load i8, i8* %53, align 1
  %55 = sext i8 %54 to i32
  %56 = load i32, i32* %6, align 4
  %57 = sext i32 %56 to i64
  %58 = getelementptr inbounds [100 x i8], [100 x i8]* %8, i64 0, i64 %57
  %59 = load i8, i8* %58, align 1
  %60 = sext i8 %59 to i32
  %61 = sub nsw i32 %55, %60
  %62 = trunc i32 %61 to i8
  %63 = load i32, i32* %3, align 4
  %64 = load i32, i32* %4, align 4
  %65 = sub nsw i32 %63, %64
  %66 = load i32, i32* %6, align 4
  %67 = add nsw i32 %65, %66
  %68 = sext i32 %67 to i64
  %69 = getelementptr inbounds [100 x i8], [100 x i8]* %7, i64 0, i64 %68
  store i8 %62, i8* %69, align 1
  br label %115

70:                                               ; preds = %30
  %71 = load i32, i32* %3, align 4
  %72 = load i32, i32* %4, align 4
  %73 = sub nsw i32 %71, %72
  %74 = load i32, i32* %6, align 4
  %75 = add nsw i32 %73, %74
  %76 = sub nsw i32 %75, 1
  %77 = sext i32 %76 to i64
  %78 = getelementptr inbounds [100 x i8], [100 x i8]* %7, i64 0, i64 %77
  %79 = load i8, i8* %78, align 1
  %80 = sext i8 %79 to i32
  %81 = sub nsw i32 %80, 1
  %82 = trunc i32 %81 to i8
  %83 = load i32, i32* %3, align 4
  %84 = load i32, i32* %4, align 4
  %85 = sub nsw i32 %83, %84
  %86 = load i32, i32* %6, align 4
  %87 = add nsw i32 %85, %86
  %88 = sub nsw i32 %87, 1
  %89 = sext i32 %88 to i64
  %90 = getelementptr inbounds [100 x i8], [100 x i8]* %7, i64 0, i64 %89
  store i8 %82, i8* %90, align 1
  %91 = load i32, i32* %3, align 4
  %92 = load i32, i32* %4, align 4
  %93 = sub nsw i32 %91, %92
  %94 = load i32, i32* %6, align 4
  %95 = add nsw i32 %93, %94
  %96 = sext i32 %95 to i64
  %97 = getelementptr inbounds [100 x i8], [100 x i8]* %7, i64 0, i64 %96
  %98 = load i8, i8* %97, align 1
  %99 = sext i8 %98 to i32
  %100 = add nsw i32 %99, 10
  %101 = load i32, i32* %6, align 4
  %102 = sext i32 %101 to i64
  %103 = getelementptr inbounds [100 x i8], [100 x i8]* %8, i64 0, i64 %102
  %104 = load i8, i8* %103, align 1
  %105 = sext i8 %104 to i32
  %106 = sub nsw i32 %100, %105
  %107 = trunc i32 %106 to i8
  %108 = load i32, i32* %3, align 4
  %109 = load i32, i32* %4, align 4
  %110 = sub nsw i32 %108, %109
  %111 = load i32, i32* %6, align 4
  %112 = add nsw i32 %110, %111
  %113 = sext i32 %112 to i64
  %114 = getelementptr inbounds [100 x i8], [100 x i8]* %7, i64 0, i64 %113
  store i8 %107, i8* %114, align 1
  br label %115

115:                                              ; preds = %70, %46
  br label %116

116:                                              ; preds = %115
  %117 = load i32, i32* %6, align 4
  %118 = add nsw i32 %117, -1
  store i32 %118, i32* %6, align 4
  br label %27

119:                                              ; preds = %27
  %120 = load i32, i32* %3, align 4
  %121 = load i32, i32* %4, align 4
  %122 = sub nsw i32 %120, %121
  %123 = sext i32 %122 to i64
  %124 = getelementptr inbounds [100 x i8], [100 x i8]* %7, i64 0, i64 %123
  %125 = load i8, i8* %124, align 1
  %126 = sext i8 %125 to i32
  %127 = getelementptr inbounds [100 x i8], [100 x i8]* %8, i64 0, i64 0
  %128 = load i8, i8* %127, align 16
  %129 = sext i8 %128 to i32
  %130 = icmp slt i32 %126, %129
  br i1 %130, label %131, label %160

131:                                              ; preds = %119
  %132 = load i32, i32* %3, align 4
  %133 = load i32, i32* %4, align 4
  %134 = sub nsw i32 %132, %133
  %135 = sub nsw i32 %134, 1
  %136 = sext i32 %135 to i64
  %137 = getelementptr inbounds [100 x i8], [100 x i8]* %7, i64 0, i64 %136
  %138 = load i8, i8* %137, align 1
  %139 = sext i8 %138 to i32
  %140 = sub nsw i32 %139, 1
  %141 = trunc i32 %140 to i8
  store i8 %141, i8* %137, align 1
  %142 = load i32, i32* %3, align 4
  %143 = load i32, i32* %4, align 4
  %144 = sub nsw i32 %142, %143
  %145 = sext i32 %144 to i64
  %146 = getelementptr inbounds [100 x i8], [100 x i8]* %7, i64 0, i64 %145
  %147 = load i8, i8* %146, align 1
  %148 = sext i8 %147 to i32
  %149 = add nsw i32 %148, 10
  %150 = getelementptr inbounds [100 x i8], [100 x i8]* %8, i64 0, i64 0
  %151 = load i8, i8* %150, align 16
  %152 = sext i8 %151 to i32
  %153 = sub nsw i32 %149, %152
  %154 = trunc i32 %153 to i8
  %155 = load i32, i32* %3, align 4
  %156 = load i32, i32* %4, align 4
  %157 = sub nsw i32 %155, %156
  %158 = sext i32 %157 to i64
  %159 = getelementptr inbounds [100 x i8], [100 x i8]* %7, i64 0, i64 %158
  store i8 %154, i8* %159, align 1
  br label %178

160:                                              ; preds = %119
  %161 = load i32, i32* %3, align 4
  %162 = load i32, i32* %4, align 4
  %163 = sub nsw i32 %161, %162
  %164 = sext i32 %163 to i64
  %165 = getelementptr inbounds [100 x i8], [100 x i8]* %7, i64 0, i64 %164
  %166 = load i8, i8* %165, align 1
  %167 = sext i8 %166 to i32
  %168 = getelementptr inbounds [100 x i8], [100 x i8]* %8, i64 0, i64 0
  %169 = load i8, i8* %168, align 16
  %170 = sext i8 %169 to i32
  %171 = sub nsw i32 %167, %170
  %172 = trunc i32 %171 to i8
  %173 = load i32, i32* %3, align 4
  %174 = load i32, i32* %4, align 4
  %175 = sub nsw i32 %173, %174
  %176 = sext i32 %175 to i64
  %177 = getelementptr inbounds [100 x i8], [100 x i8]* %7, i64 0, i64 %176
  store i8 %172, i8* %177, align 1
  br label %178

178:                                              ; preds = %160, %131
  store i32 0, i32* %6, align 4
  br label %179

179:                                              ; preds = %196, %178
  %180 = load i32, i32* %6, align 4
  %181 = load i32, i32* %3, align 4
  %182 = load i32, i32* %4, align 4
  %183 = sub nsw i32 %181, %182
  %184 = icmp slt i32 %180, %183
  br i1 %184, label %185, label %199

185:                                              ; preds = %179
  %186 = load i32, i32* %6, align 4
  %187 = sext i32 %186 to i64
  %188 = getelementptr inbounds [100 x i8], [100 x i8]* %7, i64 0, i64 %187
  %189 = load i8, i8* %188, align 1
  %190 = sext i8 %189 to i32
  %191 = sub nsw i32 %190, 48
  %192 = trunc i32 %191 to i8
  %193 = load i32, i32* %6, align 4
  %194 = sext i32 %193 to i64
  %195 = getelementptr inbounds [100 x i8], [100 x i8]* %7, i64 0, i64 %194
  store i8 %192, i8* %195, align 1
  br label %196

196:                                              ; preds = %185
  %197 = load i32, i32* %6, align 4
  %198 = add nsw i32 %197, 1
  store i32 %198, i32* %6, align 4
  br label %179

199:                                              ; preds = %179
  store i32 0, i32* %6, align 4
  br label %200

200:                                              ; preds = %211, %199
  %201 = load i32, i32* %6, align 4
  %202 = load i32, i32* %3, align 4
  %203 = icmp slt i32 %201, %202
  br i1 %203, label %204, label %214

204:                                              ; preds = %200
  %205 = load i32, i32* %6, align 4
  %206 = sext i32 %205 to i64
  %207 = getelementptr inbounds [100 x i8], [100 x i8]* %7, i64 0, i64 %206
  %208 = load i8, i8* %207, align 1
  %209 = sext i8 %208 to i32
  %210 = call i32 (i8*, ...) @printf(i8* getelementptr inbounds ([3 x i8], [3 x i8]* @.str, i64 0, i64 0), i32 %209)
  br label %211

211:                                              ; preds = %204
  %212 = load i32, i32* %6, align 4
  %213 = add nsw i32 %212, 1
  store i32 %213, i32* %6, align 4
  br label %200

214:                                              ; preds = %200
  %215 = call i32 (i8*, ...) @printf(i8* getelementptr inbounds ([2 x i8], [2 x i8]* @.str.2, i64 0, i64 0))
  br label %216

216:                                              ; preds = %214
  %217 = load i32, i32* %5, align 4
  %218 = add nsw i32 %217, 1
  store i32 %218, i32* %5, align 4
  br label %10

219:                                              ; preds = %10
  ret i32 0
}

declare dso_local i32 @__isoc99_scanf(i8*, ...) #1

; Function Attrs: nounwind readonly
declare dso_local i64 @strlen(i8*) #2

declare dso_local i32 @printf(i8*, ...) #1


!llvm.module.flags = !{!0}
!llvm.ident = !{!1}

!0 = !{i32 1, !"wchar_size", i32 4}
!1 = !{!"clang version 10.0.0-4ubuntu1 "}
